; Function Attrs: mustprogress nofree norecurse nosync nounwind memory(argmem: readwrite) uwtable
define dso_local void @_ZNK16btCylinderShapeZ49batchedUnitVectorGetSupportingVertexWithoutMarginEPK9btVector3PS0_i(ptr nocapture noundef nonnull readonly align 8 dereferenceable(76) %this, ptr nocapture noundef readonly %vectors, ptr nocapture noundef writeonly %supportVerticesOut, i32 noundef %numVectors) unnamed_addr #5 align 2 {
entry:
  %cmp4 = icmp sgt i32 %numVectors, 0
  br i1 %cmp4, label %for.body.lr.ph, label %for.end

for.body.lr.ph:                                   ; preds = %entry
  %m_implicitShapeDimensions.i = getelementptr inbounds i8, ptr %this, i64 48
  %arrayidx2.i = getelementptr inbounds i8, ptr %this, i64 56
  %wide.trip.count = zext nneg i32 %numVectors to i64
  br label %for.body

for.body:                                         ; preds = %for.body.lr.ph, %_Z21CylinderLocalSupportZRK9btVector3S1_.exit
  %indvars.iv = phi i64 [ 0, %for.body.lr.ph ], [ %indvars.iv.next, %_Z21CylinderLocalSupportZRK9btVector3S1_.exit ]
  %arrayidx = getelementptr inbounds %class.btVector3, ptr %vectors, i64 %indvars.iv
  %0 = load float, ptr %m_implicitShapeDimensions.i, align 8
  %1 = load float, ptr %arrayidx2.i, align 8
  %2 = load <2 x float>, ptr %arrayidx, align 4
  %3 = fmul <2 x float> %2, %2
  %mul11.i = extractelement <2 x float> %3, i64 1
  %4 = extractelement <2 x float> %2, i64 0
  %5 = tail call float @llvm.fmuladd.f32(float %4, float %4, float %mul11.i)
  %sqrt.i = tail call float @llvm.sqrt.f32(float %5)
  %cmp.i = fcmp une float %sqrt.i, 0.000000e+00
  br i1 %cmp.i, label %if.then.i, label %if.else.i

if.then.i:                                        ; preds = %for.body
  %div.i = fdiv float %0, %sqrt.i
  %arrayidx18.i = getelementptr inbounds i8, ptr %arrayidx, i64 8
  %6 = load float, ptr %arrayidx18.i, align 4
  %cmp19.i = fcmp olt float %6, 0.000000e+00
  %fneg.i = fneg float %1
  %cond.i = select i1 %cmp19.i, float %fneg.i, float %1
  %retval.sroa.5.8.vec.insert.i = insertelement <2 x float> <float poison, float undef>, float %cond.i, i64 0
  %7 = insertelement <2 x float> poison, float %div.i, i64 0
  %8 = shufflevector <2 x float> %7, <2 x float> poison, <2 x i32> zeroinitializer
  %9 = fmul <2 x float> %2, %8
  br label %_Z21CylinderLocalSupportZRK9btVector3S1_.exit

if.else.i:                                        ; preds = %for.body
  %arrayidx30.i = getelementptr inbounds i8, ptr %arrayidx, i64 8
  %10 = load float, ptr %arrayidx30.i, align 4
  %cmp32.i = fcmp olt float %10, 0.000000e+00
  %fneg34.i = fneg float %1
  %cond37.i = select i1 %cmp32.i, float %fneg34.i, float %1
  %retval.sroa.5.8.vec.insert22.i = insertelement <2 x float> <float poison, float undef>, float %cond37.i, i64 0
  %retval.sroa.0.4.vec.insert19.i = insertelement <2 x float> <float poison, float 0.000000e+00>, float %0, i64 0
  br label %_Z21CylinderLocalSupportZRK9btVector3S1_.exit

_Z21CylinderLocalSupportZRK9btVector3S1_.exit:    ; preds = %if.then.i, %if.else.i
  %retval.sroa.5.0.i = phi <2 x float> [ %retval.sroa.5.8.vec.insert.i, %if.then.i ], [ %retval.sroa.5.8.vec.insert22.i, %if.else.i ]
  %retval.sroa.0.0.i = phi <2 x float> [ %9, %if.then.i ], [ %retval.sroa.0.4.vec.insert19.i, %if.else.i ]
  %arrayidx4 = getelementptr inbounds %class.btVector3, ptr %supportVerticesOut, i64 %indvars.iv
  store <2 x float> %retval.sroa.0.0.i, ptr %arrayidx4, align 4
  %ref.tmp.sroa.2.0.arrayidx4.sroa_idx = getelementptr inbounds i8, ptr %arrayidx4, i64 8
  store <2 x float> %retval.sroa.5.0.i, ptr %ref.tmp.sroa.2.0.arrayidx4.sroa_idx, align 4
  %indvars.iv.next = add nuw nsw i64 %indvars.iv, 1
  %exitcond.not = icmp eq i64 %indvars.iv.next, %wide.trip.count
  br i1 %exitcond.not, label %for.end, label %for.body, !llvm.loop !10

for.end:                                          ; preds = %_Z21CylinderLocalSupportZRK9btVector3S1_.exit, %entry
  ret void
}